target datalayout = "e-m:e-p270:32:32-p271:32:32-p272:64:64-i64:64-i128:128-f80:128-n8:16:32:64-S128"
target triple = "x86_64-pc-linux-gnu"

%struct.H5D_btree_key_t = type { [33 x i64], i32, i32 }

@H5D_init_g = external global i8, align 1
@H5_libterm_g = external global i8, align 1
@.str = private unnamed_addr constant [102 x i8] c"generated/home/dtcxzyw/WorkSpace/Projects/compilers/llvm-opt-benchmark/bench/hdf5/hdf5/src/H5Dbtree.c\00", align 1
@H5E_CANTFREE_g = external global i64, align 8
@H5E_STORAGE_g = external global i64, align 8
@__func__.H5D__btree_remove = private unnamed_addr constant [18 x i8] c"H5D__btree_remove\00", align 1
@.str.26 = private unnamed_addr constant [21 x i8] c"unable to free chunk\00", align 1

; Function Attrs: nounwind uwtable
define internal i32 @H5D__btree_remove(ptr noundef %0, i64 noundef %1, ptr noundef %2, ptr noundef %3, ptr noundef %4, ptr noundef %5, ptr noundef %6) #0 {
  %8 = alloca ptr, align 8
  %9 = alloca i64, align 8
  %10 = alloca ptr, align 8
  %11 = alloca ptr, align 8
  %12 = alloca ptr, align 8
  %13 = alloca ptr, align 8
  %14 = alloca ptr, align 8
  %15 = alloca ptr, align 8
  %16 = alloca i32, align 4
  %17 = alloca i8, align 1
  store ptr %0, ptr %8, align 8, !tbaa !56
  store i64 %1, ptr %9, align 8, !tbaa !10
  store ptr %2, ptr %10, align 8, !tbaa !41
  store ptr %3, ptr %11, align 8, !tbaa !31
  store ptr %4, ptr %12, align 8, !tbaa !41
  store ptr %5, ptr %13, align 8, !tbaa !41
  store ptr %6, ptr %14, align 8, !tbaa !31
  call void @llvm.lifetime.start.p0(i64 8, ptr %15) #8
  %18 = load ptr, ptr %10, align 8, !tbaa !41
  store ptr %18, ptr %15, align 8, !tbaa !78
  call void @llvm.lifetime.start.p0(i64 4, ptr %16) #8
  store i32 5, ptr %16, align 4, !tbaa !12
  call void @llvm.lifetime.start.p0(i64 1, ptr %17) #8
  store i8 0, ptr %17, align 1, !tbaa !14
  %19 = load i8, ptr @H5D_init_g, align 1, !tbaa !14, !range !16, !noundef !17
  %20 = trunc i8 %19 to i1
  br i1 %20, label %25, label %21

21:                                               ; preds = %7
  %22 = load i8, ptr @H5_libterm_g, align 1, !tbaa !14, !range !16, !noundef !17
  %23 = trunc i8 %22 to i1
  %24 = xor i1 %23, true
  br label %25

25:                                               ; preds = %21, %7
  %26 = phi i1 [ true, %7 ], [ %24, %21 ]
  %27 = xor i1 %26, true
  %28 = xor i1 %27, true
  %29 = zext i1 %28 to i32
  %30 = sext i32 %29 to i64
  %31 = call i64 @llvm.expect.i64(i64 %30, i64 1)
  %32 = icmp ne i64 %31, 0
  br i1 %32, label %33, label %65

33:                                               ; preds = %25
  %34 = load ptr, ptr %8, align 8, !tbaa !56
  %35 = load i64, ptr %9, align 8, !tbaa !10
  %36 = load ptr, ptr %15, align 8, !tbaa !78
  %37 = getelementptr inbounds nuw %struct.H5D_btree_key_t, ptr %36, i32 0, i32 1
  %38 = load i32, ptr %37, align 8, !tbaa !86
  %39 = zext i32 %38 to i64
  %40 = call i32 @H5MF_xfree(ptr noundef %34, i32 noundef 3, i64 noundef %35, i64 noundef %39)
  %41 = icmp slt i32 %40, 0
  br i1 %41, label %42, label %61

42:                                               ; preds = %33
  br label %43

43:                                               ; preds = %42
  br label %44

44:                                               ; preds = %43
  br label %45

45:                                               ; preds = %44
  %46 = load i64, ptr @H5E_STORAGE_g, align 8, !tbaa !10
  %47 = load i64, ptr @H5E_CANTFREE_g, align 8, !tbaa !10
  %48 = call i32 (ptr, ptr, i32, i64, i64, ptr, ...) @H5E_printf_stack(ptr noundef @.str, ptr noundef @__func__.H5D__btree_remove, i32 noundef 601, i64 noundef %46, i64 noundef %47, ptr noundef @.str.26)
  br label %49

49:                                               ; preds = %45
  br label %50

50:                                               ; preds = %49
  store i8 1, ptr %17, align 1, !tbaa !14
  %51 = load i8, ptr %17, align 1, !tbaa !14, !range !16, !noundef !17
  %52 = trunc i8 %51 to i1
  %53 = zext i1 %52 to i8
  store i8 %53, ptr %17, align 1, !tbaa !14
  br label %54

54:                                               ; preds = %50
  br label %55

55:                                               ; preds = %54
  br label %56

56:                                               ; preds = %55
  store i32 -1, ptr %16, align 4, !tbaa !12
  br label %64

57:                                               ; No predecessors!
  br label %58

58:                                               ; preds = %57
  br label %59

59:                                               ; preds = %58
  br label %60

60:                                               ; preds = %59
  br label %61

61:                                               ; preds = %60, %33
  %62 = load ptr, ptr %11, align 8, !tbaa !31
  store i8 0, ptr %62, align 1, !tbaa !14
  %63 = load ptr, ptr %14, align 8, !tbaa !31
  store i8 0, ptr %63, align 1, !tbaa !14
  br label %64

64:                                               ; preds = %61, %56
  br label %65

65:                                               ; preds = %64, %25
  %66 = load i32, ptr %16, align 4, !tbaa !12
  call void @llvm.lifetime.end.p0(i64 1, ptr %17) #8
  call void @llvm.lifetime.end.p0(i64 4, ptr %16) #8
  call void @llvm.lifetime.end.p0(i64 8, ptr %15) #8
  ret i32 %66
}