; Function Attrs: nounwind uwtable
define internal range(i32 -1, 6) i32 @H5D__btree_remove(ptr noundef %0, i64 noundef %1, ptr noundef readonly captures(none) %2, ptr noundef writeonly captures(none) %3, ptr readnone captures(none) %4, ptr readnone captures(none) %5, ptr noundef writeonly captures(none) %6) #0 {
  %8 = load i8, ptr @H5D_init_g, align 1, !tbaa !3, !range !7, !noundef !8
  %9 = trunc nuw i8 %8 to i1
  %10 = load i8, ptr @H5_libterm_g, align 1, !range !7
  %11 = trunc nuw i8 %10 to i1
  %12 = xor i1 %11, true
  %13 = select i1 %9, i1 true, i1 %12
  br i1 %13, label %14, label %25, !prof !9

14:                                               ; preds = %7
  %15 = getelementptr inbounds nuw i8, ptr %2, i64 264
  %16 = load i32, ptr %15, align 8, !tbaa !57
  %17 = zext i32 %16 to i64
  %18 = tail call i32 @H5MF_xfree(ptr noundef %0, i32 noundef 3, i64 noundef %1, i64 noundef %17) #15
  %19 = icmp slt i32 %18, 0
  br i1 %19, label %20, label %24

20:                                               ; preds = %14
  %21 = load i64, ptr @H5E_STORAGE_g, align 8, !tbaa !20
  %22 = load i64, ptr @H5E_CANTFREE_g, align 8, !tbaa !20
  %23 = tail call i32 (ptr, ptr, i32, i64, i64, ptr, ...) @H5E_printf_stack(ptr noundef nonnull @.str, ptr noundef nonnull @__func__.H5D__btree_remove, i32 noundef 601, i64 noundef %21, i64 noundef %22, ptr noundef nonnull @.str.26) #15
  br label %25

24:                                               ; preds = %14
  store i8 0, ptr %3, align 1, !tbaa !3
  store i8 0, ptr %6, align 1, !tbaa !3
  br label %25

25:                                               ; preds = %20, %24, %7
  %.0 = phi i32 [ -1, %20 ], [ 5, %24 ], [ 5, %7 ]
  ret i32 %.0
}